target datalayout = "e-m:e-p270:32:32-p271:32:32-p272:64:64-i64:64-i128:128-f80:128-n8:16:32:64-S128"
target triple = "x86_64-unknown-linux-gnu"

%"class.QuantLib::(anonymous namespace)::integrand_vasicek" = type { double, double, double, double, double }

; Function Attrs: mustprogress nounwind uwtable
define internal noundef double @_ZN8QuantLib12_GLOBAL__N_13g_kEdd(double noundef %t, double noundef %kappa) #1 {
entry:
  %t.addr = alloca double, align 8
  %kappa.addr = alloca double, align 8
  store double %t, ptr %t.addr, align 8, !tbaa !14
  store double %kappa, ptr %kappa.addr, align 8, !tbaa !14
  %0 = load double, ptr %kappa.addr, align 8, !tbaa !14
  %fneg = fneg double %0
  %1 = load double, ptr %t.addr, align 8, !tbaa !14
  %mul = fmul double %fneg, %1
  %call = call double @exp(double noundef %mul) #15, !tbaa !59
  %sub = fsub double 1.000000e+00, %call
  %2 = load double, ptr %kappa.addr, align 8, !tbaa !14
  %div = fdiv double %sub, %2
  ret double %div
}

; Function Attrs: mustprogress uwtable
define internal noundef double @_ZNK8QuantLib12_GLOBAL__N_117integrand_vasicekclEd(ptr noundef nonnull align 8 dereferenceable(40) %this, double noundef %u) #2 align 2 {
entry:
  %this.addr = alloca ptr, align 8
  %u.addr = alloca double, align 8
  %g = alloca double, align 8
  store ptr %this, ptr %this.addr, align 8, !tbaa !3
  store double %u, ptr %u.addr, align 8, !tbaa !14
  %this1 = load ptr, ptr %this.addr, align 8
  call void @llvm.lifetime.start.p0(i64 8, ptr %g) #15
  %T_ = getelementptr inbounds nuw %"class.QuantLib::(anonymous namespace)::integrand_vasicek", ptr %this1, i32 0, i32 4
  %0 = load double, ptr %T_, align 8, !tbaa !116
  %1 = load double, ptr %u.addr, align 8, !tbaa !14
  %sub = fsub double %0, %1
  %kappa_ = getelementptr inbounds nuw %"class.QuantLib::(anonymous namespace)::integrand_vasicek", ptr %this1, i32 0, i32 3
  %2 = load double, ptr %kappa_, align 8, !tbaa !115
  %call = call noundef double @_ZN8QuantLib12_GLOBAL__N_13g_kEdd(double noundef %sub, double noundef %2)
  store double %call, ptr %g, align 8, !tbaa !14
  %sigma_s_ = getelementptr inbounds nuw %"class.QuantLib::(anonymous namespace)::integrand_vasicek", ptr %this1, i32 0, i32 0
  %3 = load double, ptr %sigma_s_, align 8, !tbaa !111
  %sigma_s_2 = getelementptr inbounds nuw %"class.QuantLib::(anonymous namespace)::integrand_vasicek", ptr %this1, i32 0, i32 0
  %4 = load double, ptr %sigma_s_2, align 8, !tbaa !111
  %correlation_ = getelementptr inbounds nuw %"class.QuantLib::(anonymous namespace)::integrand_vasicek", ptr %this1, i32 0, i32 2
  %5 = load double, ptr %correlation_, align 8, !tbaa !114
  %mul3 = fmul double 2.000000e+00, %5
  %sigma_s_4 = getelementptr inbounds nuw %"class.QuantLib::(anonymous namespace)::integrand_vasicek", ptr %this1, i32 0, i32 0
  %6 = load double, ptr %sigma_s_4, align 8, !tbaa !111
  %mul5 = fmul double %mul3, %6
  %sigma_r_ = getelementptr inbounds nuw %"class.QuantLib::(anonymous namespace)::integrand_vasicek", ptr %this1, i32 0, i32 1
  %7 = load double, ptr %sigma_r_, align 8, !tbaa !113
  %mul6 = fmul double %mul5, %7
  %8 = load double, ptr %g, align 8, !tbaa !14
  %mul7 = fmul double %mul6, %8
  %9 = call double @llvm.fmuladd.f64(double %3, double %4, double %mul7)
  %sigma_r_8 = getelementptr inbounds nuw %"class.QuantLib::(anonymous namespace)::integrand_vasicek", ptr %this1, i32 0, i32 1
  %10 = load double, ptr %sigma_r_8, align 8, !tbaa !113
  %sigma_r_9 = getelementptr inbounds nuw %"class.QuantLib::(anonymous namespace)::integrand_vasicek", ptr %this1, i32 0, i32 1
  %11 = load double, ptr %sigma_r_9, align 8, !tbaa !113
  %mul = fmul double %10, %11
  %12 = load double, ptr %g, align 8, !tbaa !14
  %mul10 = fmul double %mul, %12
  %13 = load double, ptr %g, align 8, !tbaa !14
  %14 = call double @llvm.fmuladd.f64(double %mul10, double %13, double %9)
  call void @llvm.lifetime.end.p0(i64 8, ptr %g) #15
  ret double %14
}

; Function Attrs: mustprogress nounwind uwtable
define linkonce_odr noundef ptr @_ZNKSt9_Any_data9_M_accessEv(ptr noundef nonnull align 8 dereferenceable(16) %this) #1 comdat align 2 {
entry:
  %this.addr = alloca ptr, align 8
  store ptr %this, ptr %this.addr, align 8, !tbaa !3
  %this1 = load ptr, ptr %this.addr, align 8
  %arrayidx = getelementptr inbounds [16 x i8], ptr %this1, i64 0, i64 0
  ret ptr %arrayidx
}

; Function Attrs: mustprogress uwtable
define internal noundef double @_ZSt13__invoke_implIdRN8QuantLib12_GLOBAL__N_117integrand_vasicekEJdEET_St14__invoke_otherOT0_DpOT1_(ptr noundef nonnull align 8 dereferenceable(40) %__f, ptr noundef nonnull align 8 dereferenceable(8) %__args) #2 {
entry:
  %__f.addr = alloca ptr, align 8
  %__args.addr = alloca ptr, align 8
  store ptr %__f, ptr %__f.addr, align 8, !tbaa !3
  store ptr %__args, ptr %__args.addr, align 8, !tbaa !3
  %0 = load ptr, ptr %__f.addr, align 8, !tbaa !3
  %1 = load ptr, ptr %__args.addr, align 8, !tbaa !3
  %2 = load double, ptr %1, align 8, !tbaa !14
  %call = call noundef double @_ZNK8QuantLib12_GLOBAL__N_117integrand_vasicekclEd(ptr noundef nonnull align 8 dereferenceable(40) %0, double noundef %2)
  ret double %call
}

; Function Attrs: mustprogress nounwind uwtable
define internal noundef nonnull align 8 dereferenceable(8) ptr @_ZNKSt9_Any_data9_M_accessIPN8QuantLib12_GLOBAL__N_117integrand_vasicekEEERKT_v(ptr noundef nonnull align 8 dereferenceable(16) %this) #1 align 2 {
entry:
  %this.addr = alloca ptr, align 8
  store ptr %this, ptr %this.addr, align 8, !tbaa !3
  %this1 = load ptr, ptr %this.addr, align 8
  %call = call noundef ptr @_ZNKSt9_Any_data9_M_accessEv(ptr noundef nonnull align 8 dereferenceable(16) %this1) #15
  ret ptr %call
}

; Function Attrs: mustprogress uwtable
define internal noundef double @_ZSt10__invoke_rIdRN8QuantLib12_GLOBAL__N_117integrand_vasicekEJdEENSt9enable_ifIX16is_invocable_r_vIT_T0_DpT1_EES5_E4typeEOS6_DpOS7_(ptr noundef nonnull align 8 dereferenceable(40) %__fn, ptr noundef nonnull align 8 dereferenceable(8) %__args) #2 {
entry:
  %__fn.addr = alloca ptr, align 8
  %__args.addr = alloca ptr, align 8
  store ptr %__fn, ptr %__fn.addr, align 8, !tbaa !3
  store ptr %__args, ptr %__args.addr, align 8, !tbaa !3
  %0 = load ptr, ptr %__fn.addr, align 8, !tbaa !3
  %1 = load ptr, ptr %__args.addr, align 8, !tbaa !3
  %call = call noundef double @_ZSt13__invoke_implIdRN8QuantLib12_GLOBAL__N_117integrand_vasicekEJdEET_St14__invoke_otherOT0_DpOT1_(ptr noundef nonnull align 8 dereferenceable(40) %0, ptr noundef nonnull align 8 dereferenceable(8) %1)
  ret double %call
}

; Function Attrs: mustprogress nounwind uwtable
define internal noundef ptr @_ZNSt14_Function_base13_Base_managerIN8QuantLib12_GLOBAL__N_117integrand_vasicekEE14_M_get_pointerERKSt9_Any_data(ptr noundef nonnull align 8 dereferenceable(16) %__source) #1 align 2 {
entry:
  %__source.addr = alloca ptr, align 8
  store ptr %__source, ptr %__source.addr, align 8, !tbaa !3
  %0 = load ptr, ptr %__source.addr, align 8, !tbaa !3
  %call = call noundef nonnull align 8 dereferenceable(8) ptr @_ZNKSt9_Any_data9_M_accessIPN8QuantLib12_GLOBAL__N_117integrand_vasicekEEERKT_v(ptr noundef nonnull align 8 dereferenceable(16) %0) #15
  %1 = load ptr, ptr %call, align 8, !tbaa !3
  ret ptr %1
}

; Function Attrs: mustprogress uwtable
define internal noundef double @_ZNSt17_Function_handlerIFddEN8QuantLib12_GLOBAL__N_117integrand_vasicekEE9_M_invokeERKSt9_Any_dataOd(ptr noundef nonnull align 8 dereferenceable(16) %__functor, ptr noundef nonnull align 8 dereferenceable(8) %__args) #2 align 2 {
entry:
  %__functor.addr = alloca ptr, align 8
  %__args.addr = alloca ptr, align 8
  store ptr %__functor, ptr %__functor.addr, align 8, !tbaa !3
  store ptr %__args, ptr %__args.addr, align 8, !tbaa !3
  %0 = load ptr, ptr %__functor.addr, align 8, !tbaa !3
  %call = call noundef ptr @_ZNSt14_Function_base13_Base_managerIN8QuantLib12_GLOBAL__N_117integrand_vasicekEE14_M_get_pointerERKSt9_Any_data(ptr noundef nonnull align 8 dereferenceable(16) %0) #15
  %1 = load ptr, ptr %__args.addr, align 8, !tbaa !3
  %call1 = call noundef double @_ZSt10__invoke_rIdRN8QuantLib12_GLOBAL__N_117integrand_vasicekEJdEENSt9enable_ifIX16is_invocable_r_vIT_T0_DpT1_EES5_E4typeEOS6_DpOS7_(ptr noundef nonnull align 8 dereferenceable(40) %call, ptr noundef nonnull align 8 dereferenceable(8) %1)
  ret double %call1
}