; Function Attrs: mustprogress nofree nounwind willreturn memory(readwrite, inaccessiblemem: write) uwtable
define internal noundef double @_ZNSt17_Function_handlerIFddEN8QuantLib12_GLOBAL__N_117integrand_vasicekEE9_M_invokeERKSt9_Any_dataOd(ptr nocapture noundef nonnull readonly align 8 dereferenceable(16) %__functor, ptr nocapture noundef nonnull readonly align 8 dereferenceable(8) %__args) #24 align 2 {
entry:
  %__functor.val = load ptr, ptr %__functor, align 8, !tbaa !3
  %__args.val = load double, ptr %__args, align 8, !tbaa !142
  %T_.i.i.i = getelementptr inbounds nuw i8, ptr %__functor.val, i64 32
  %0 = load double, ptr %T_.i.i.i, align 8, !tbaa !179
  %sub.i.i.i = fsub double %0, %__args.val
  %kappa_.i.i.i = getelementptr inbounds nuw i8, ptr %__functor.val, i64 24
  %1 = load double, ptr %kappa_.i.i.i, align 8, !tbaa !181
  %fneg.i.i.i.i = fneg double %1
  %mul.i.i.i.i = fmul double %sub.i.i.i, %fneg.i.i.i.i
  %call.i.i.i.i = tail call double @exp(double noundef %mul.i.i.i.i) #27, !tbaa !140
  %sub.i.i.i.i = fsub double 1.000000e+00, %call.i.i.i.i
  %div.i.i.i.i = fdiv double %sub.i.i.i.i, %1
  %2 = load double, ptr %__functor.val, align 8, !tbaa !182
  %correlation_.i.i.i = getelementptr inbounds nuw i8, ptr %__functor.val, i64 16
  %3 = load double, ptr %correlation_.i.i.i, align 8, !tbaa !183
  %mul3.i.i.i = fmul double %3, 2.000000e+00
  %mul5.i.i.i = fmul double %2, %mul3.i.i.i
  %sigma_r_.i.i.i = getelementptr inbounds nuw i8, ptr %__functor.val, i64 8
  %4 = load double, ptr %sigma_r_.i.i.i, align 8, !tbaa !184
  %mul6.i.i.i = fmul double %4, %mul5.i.i.i
  %mul7.i.i.i = fmul double %div.i.i.i.i, %mul6.i.i.i
  %5 = tail call double @llvm.fmuladd.f64(double %2, double %2, double %mul7.i.i.i)
  %mul.i.i.i = fmul double %4, %4
  %mul10.i.i.i = fmul double %div.i.i.i.i, %mul.i.i.i
  %6 = tail call noundef double @llvm.fmuladd.f64(double %mul10.i.i.i, double %div.i.i.i.i, double %5)
  ret double %6
}